(dp0
S''
p1
S'Body'
p2
sS'AAA'
p3
S'oieee'
p4
sS'key1'
p5
S'fulltextbodynoencoding'
p6
sS'gauss'
p7
S'gaussa gaussaaaaa'
p8
sS'folder/here/we/come'
p9
S'default'
p10
sS'fisle.txt'
p11
S'Body'
p12
sS'test'
p13
S'deafultasdf'
p14
sS'readme'
p15
S'This is the first page'
p16
sS'file.txt'
p17
S'Body'
p18
s.
