(dp0
S''
p1
S'Body'
p2
sS'AAA'
p3
S'oieee'
p4
sS'key1'
p5
S'fulltextbodynoencoding'
p6
sS'gauss'
p7
S'gaussa gaussaaaaa'
p8
sS'readme'
p9
S'This is the first page'
p10
sS'fisle.txt'
p11
S'Body'
p12
sS'file.txt'
p13
S'Body'
p14
s.